target datalayout = "e-m:e-p270:32:32-p271:32:32-p272:64:64-i64:64-i128:128-f80:128-n8:16:32:64-S128"
target triple = "x86_64-pc-linux-gnu"

%struct.sockaddr = type { i16, [14 x i8] }
%struct.sockaddr_in = type { i16, i16, %struct.in_addr, [8 x i8] }
%struct.in_addr = type { i32 }
%struct.sockaddr_in6 = type { i16, i16, i32, %struct.in6_addr, i32 }
%struct.in6_addr = type { %union.anon.16 }
%union.anon.16 = type { [4 x i32] }

@rb_eSocket = external global i64, align 8
@.str.45 = private unnamed_addr constant [25 x i8] c"unknown socket family:%d\00", align 1

; Function Attrs: nounwind sspstrong uwtable
define internal i64 @sock_sockaddr(ptr noundef %0, i32 noundef %1) #0 {
  %3 = alloca ptr, align 8
  %4 = alloca i32, align 4
  %5 = alloca ptr, align 8
  store ptr %0, ptr %3, align 8, !tbaa !15
  store i32 %1, ptr %4, align 4, !tbaa !13
  call void @llvm.lifetime.start.p0(i64 8, ptr %5) #24
  %6 = load ptr, ptr %3, align 8, !tbaa !15
  %7 = getelementptr inbounds nuw %struct.sockaddr, ptr %6, i32 0, i32 0
  %8 = load i16, ptr %7, align 2, !tbaa !46
  %9 = zext i16 %8 to i32
  switch i32 %9, label %18 [
    i32 2, label %10
    i32 10, label %14
  ]

10:                                               ; preds = %2
  %11 = load ptr, ptr %3, align 8, !tbaa !15
  %12 = getelementptr inbounds nuw %struct.sockaddr_in, ptr %11, i32 0, i32 2
  %13 = getelementptr inbounds nuw %struct.in_addr, ptr %12, i32 0, i32 0
  store ptr %13, ptr %5, align 8, !tbaa !6
  store i32 4, ptr %4, align 4, !tbaa !13
  br label %24

14:                                               ; preds = %2
  %15 = load ptr, ptr %3, align 8, !tbaa !15
  %16 = getelementptr inbounds nuw %struct.sockaddr_in6, ptr %15, i32 0, i32 3
  %17 = getelementptr inbounds nuw %struct.in6_addr, ptr %16, i32 0, i32 0
  store ptr %17, ptr %5, align 8, !tbaa !6
  store i32 16, ptr %4, align 4, !tbaa !13
  br label %24

18:                                               ; preds = %2
  %19 = load i64, ptr @rb_eSocket, align 8, !tbaa !11
  %20 = load ptr, ptr %3, align 8, !tbaa !15
  %21 = getelementptr inbounds nuw %struct.sockaddr, ptr %20, i32 0, i32 0
  %22 = load i16, ptr %21, align 2, !tbaa !46
  %23 = zext i16 %22 to i32
  call void (i64, ptr, ...) @rb_raise(i64 noundef %19, ptr noundef @.str.45, i32 noundef %23) #23
  unreachable

24:                                               ; preds = %14, %10
  br i1 false, label %25, label %28

25:                                               ; preds = %24
  %26 = load i32, ptr %4, align 4, !tbaa !13
  %27 = call i1 @llvm.is.constant.i32(i32 %26)
  br label %28

28:                                               ; preds = %25, %24
  %29 = phi i1 [ false, %24 ], [ %27, %25 ]
  %30 = select i1 %29, ptr @rb_str_new_static, ptr @rb_str_new
  %31 = load ptr, ptr %5, align 8, !tbaa !6
  %32 = load i32, ptr %4, align 4, !tbaa !13
  %33 = zext i32 %32 to i64
  %34 = call i64 %30(ptr noundef %31, i64 noundef %33)
  call void @llvm.lifetime.end.p0(i64 8, ptr %5) #24
  ret i64 %34
}