; Function Attrs: nounwind sspstrong uwtable
define internal i64 @sock_sockaddr(ptr noundef %0, i32 %1) #0 {
  %3 = load i16, ptr %0, align 2, !tbaa !35
  switch i16 %3, label %5 [
    i16 2, label %8
    i16 10, label %4
  ]

4:                                                ; preds = %2
  br label %8

5:                                                ; preds = %2
  %6 = zext i16 %3 to i32
  %7 = load i64, ptr @rb_eSocket, align 8, !tbaa !10
  tail call void (i64, ptr, ...) @rb_raise(i64 noundef %7, ptr noundef nonnull @.str.45, i32 noundef %6) #18
  unreachable

8:                                                ; preds = %2, %4
  %.sink = phi i64 [ 8, %4 ], [ 4, %2 ]
  %.05 = phi i64 [ 16, %4 ], [ 4, %2 ]
  %9 = getelementptr inbounds nuw i8, ptr %0, i64 %.sink
  %10 = tail call i64 @rb_str_new(ptr noundef nonnull %9, i64 noundef %.05) #16
  ret i64 %10
}